target datalayout = "e-m:e-p270:32:32-p271:32:32-p272:64:64-i64:64-i128:128-f80:128-n8:16:32:64-S128"
target triple = "x86_64-pc-linux-gnu"

%struct.AVRational = type { i32, i32 }
%struct.MOVAtom = type { i32, i64 }
%struct.MOVContext = type { ptr, ptr, i32, i64, i32, i32, i32, i32, i32, i32, ptr, i32, ptr, ptr, i32, %struct.MOVFragment, ptr, i32, i32, i32, ptr, i32, i32, i32, i32, i32, i32, i32, i64, i32, i32, ptr, i32, i32, i32, i32, i32, %struct.MOVFragmentIndex, i32, i32, [20 x i8], [20 x i8], ptr, i32, ptr, i32, ptr, i32, ptr, i32, ptr, ptr, i32, i32, [3 x [3 x i32]], i32, i32, i32, i32, i32, ptr, i32, ptr, i32, i32, i64, i32 }
%struct.MOVFragment = type { i32, i32, i64, i64, i64, i32, i32, i32, i32 }
%struct.MOVFragmentIndex = type { i32, i32, i32, i32, ptr }
%struct.AVFormatContext = type { ptr, ptr, ptr, ptr, ptr, i32, i32, ptr, i32, ptr, i32, ptr, ptr, i64, i64, i64, i32, i32, i32, i64, i64, ptr, i32, i32, ptr, i32, i32, i32, i32, ptr, i64, i32, i32, %struct.AVIOInterruptCB, i32, i32, i32, i32, i64, i32, i32, i32, i32, i32, i32, i32, i32, i32, i32, i32, i32, i64, i32, i32, i32, i32, i32, ptr, ptr, ptr, ptr, i32, ptr, ptr, ptr, ptr, i32, ptr, ptr, i64, ptr, ptr, ptr, i64 }
%struct.AVIOInterruptCB = type { ptr, ptr }
%struct.AVStream = type { ptr, i32, i32, ptr, ptr, %struct.AVRational, i64, i64, i64, i32, i32, %struct.AVRational, ptr, %struct.AVRational, %struct.AVPacket, i32, %struct.AVRational, i32 }
%struct.AVPacket = type { ptr, i64, i64, ptr, i32, i32, i32, ptr, i32, i64, i64, ptr, ptr, %struct.AVRational }
%struct.AVCodecParameters = type { i32, i32, i32, ptr, i32, ptr, i32, i32, i64, i32, i32, i32, i32, i32, i32, %struct.AVRational, %struct.AVRational, i32, i32, i32, i32, i32, i32, i32, %struct.AVChannelLayout, i32, i32, i32, i32, i32, i32 }
%struct.AVChannelLayout = type { i32, i32, %union.anon, ptr }
%union.anon = type { i64 }

@thd_layout = internal constant [13 x i64] [i64 3, i64 4, i64 8, i64 1536, i64 20480, i64 192, i64 48, i64 256, i64 2048, i64 25769803776, i64 6442450944, i64 8192, i64 34359738368], align 16

; Function Attrs: inlinehint nounwind uwtable
define internal i64 @truehd_layout(i32 noundef %0) #8 {
  %2 = alloca i32, align 4
  %3 = alloca i32, align 4
  %4 = alloca i64, align 8
  store i32 %0, ptr %2, align 4, !tbaa !11
  call void @llvm.lifetime.start.p0(i64 4, ptr %3) #14
  call void @llvm.lifetime.start.p0(i64 8, ptr %4) #14
  store i64 0, ptr %4, align 8, !tbaa !59
  store i32 0, ptr %3, align 4, !tbaa !11
  br label %5

5:                                                ; preds = %21, %1
  %6 = load i32, ptr %3, align 4, !tbaa !11
  %7 = icmp slt i32 %6, 13
  br i1 %7, label %8, label %24

8:                                                ; preds = %5
  %9 = load i32, ptr %3, align 4, !tbaa !11
  %10 = sext i32 %9 to i64
  %11 = getelementptr inbounds [13 x i64], ptr @thd_layout, i64 0, i64 %10
  %12 = load i64, ptr %11, align 8, !tbaa !59
  %13 = load i32, ptr %2, align 4, !tbaa !11
  %14 = load i32, ptr %3, align 4, !tbaa !11
  %15 = ashr i32 %13, %14
  %16 = and i32 %15, 1
  %17 = sext i32 %16 to i64
  %18 = mul i64 %12, %17
  %19 = load i64, ptr %4, align 8, !tbaa !59
  %20 = or i64 %19, %18
  store i64 %20, ptr %4, align 8, !tbaa !59
  br label %21

21:                                               ; preds = %8
  %22 = load i32, ptr %3, align 4, !tbaa !11
  %23 = add nsw i32 %22, 1
  store i32 %23, ptr %3, align 4, !tbaa !11
  br label %5, !llvm.loop !776

24:                                               ; preds = %5
  %25 = load i64, ptr %4, align 8, !tbaa !59
  call void @llvm.lifetime.end.p0(i64 8, ptr %4) #14
  call void @llvm.lifetime.end.p0(i64 4, ptr %3) #14
  ret i64 %25
}

; Function Attrs: inlinehint nounwind uwtable
define internal i32 @mlp_samplerate(i32 noundef %0) #8 {
  %2 = alloca i32, align 4
  %3 = alloca i32, align 4
  store i32 %0, ptr %3, align 4, !tbaa !11
  %4 = load i32, ptr %3, align 4, !tbaa !11
  %5 = icmp eq i32 %4, 15
  br i1 %5, label %6, label %7

6:                                                ; preds = %1
  store i32 0, ptr %2, align 4
  br label %15

7:                                                ; preds = %1
  %8 = load i32, ptr %3, align 4, !tbaa !11
  %9 = and i32 %8, 8
  %10 = icmp ne i32 %9, 0
  %11 = select i1 %10, i32 44100, i32 48000
  %12 = load i32, ptr %3, align 4, !tbaa !11
  %13 = and i32 %12, 7
  %14 = shl i32 %11, %13
  store i32 %14, ptr %2, align 4
  br label %15

15:                                               ; preds = %7, %6
  %16 = load i32, ptr %2, align 4
  ret i32 %16
}

; Function Attrs: nounwind uwtable
define internal i32 @mov_read_dmlp(ptr noundef %0, ptr noundef %1, i32 %2, i64 %3) #0 {
  %5 = alloca i32, align 4
  %6 = alloca %struct.MOVAtom, align 8
  %7 = alloca ptr, align 8
  %8 = alloca ptr, align 8
  %9 = alloca ptr, align 8
  %10 = alloca i32, align 4
  %11 = alloca i32, align 4
  %12 = alloca i32, align 4
  %13 = alloca i32, align 4
  %14 = alloca i32, align 4
  %15 = alloca i64, align 8
  %16 = alloca i32, align 4
  %17 = getelementptr inbounds nuw { i32, i64 }, ptr %6, i32 0, i32 0
  store i32 %2, ptr %17, align 8
  %18 = getelementptr inbounds nuw { i32, i64 }, ptr %6, i32 0, i32 1
  store i64 %3, ptr %18, align 8
  store ptr %0, ptr %7, align 8, !tbaa !4
  store ptr %1, ptr %8, align 8, !tbaa !9
  call void @llvm.lifetime.start.p0(i64 8, ptr %9) #14
  call void @llvm.lifetime.start.p0(i64 4, ptr %10) #14
  call void @llvm.lifetime.start.p0(i64 4, ptr %11) #14
  call void @llvm.lifetime.start.p0(i64 4, ptr %12) #14
  call void @llvm.lifetime.start.p0(i64 4, ptr %13) #14
  call void @llvm.lifetime.start.p0(i64 4, ptr %14) #14
  call void @llvm.lifetime.start.p0(i64 8, ptr %15) #14
  %19 = load ptr, ptr %7, align 8, !tbaa !4
  %20 = getelementptr inbounds nuw %struct.MOVContext, ptr %19, i32 0, i32 1
  %21 = load ptr, ptr %20, align 8, !tbaa !13
  %22 = getelementptr inbounds nuw %struct.AVFormatContext, ptr %21, i32 0, i32 6
  %23 = load i32, ptr %22, align 4, !tbaa !30
  %24 = icmp ult i32 %23, 1
  br i1 %24, label %25, label %26

25:                                               ; preds = %4
  store i32 0, ptr %5, align 4
  store i32 1, ptr %16, align 4
  br label %88

26:                                               ; preds = %4
  %27 = load ptr, ptr %7, align 8, !tbaa !4
  %28 = getelementptr inbounds nuw %struct.MOVContext, ptr %27, i32 0, i32 1
  %29 = load ptr, ptr %28, align 8, !tbaa !13
  %30 = getelementptr inbounds nuw %struct.AVFormatContext, ptr %29, i32 0, i32 7
  %31 = load ptr, ptr %30, align 8, !tbaa !41
  %32 = load ptr, ptr %7, align 8, !tbaa !4
  %33 = getelementptr inbounds nuw %struct.MOVContext, ptr %32, i32 0, i32 1
  %34 = load ptr, ptr %33, align 8, !tbaa !13
  %35 = getelementptr inbounds nuw %struct.AVFormatContext, ptr %34, i32 0, i32 6
  %36 = load i32, ptr %35, align 4, !tbaa !30
  %37 = sub i32 %36, 1
  %38 = zext i32 %37 to i64
  %39 = getelementptr inbounds nuw ptr, ptr %31, i64 %38
  %40 = load ptr, ptr %39, align 8, !tbaa !42
  store ptr %40, ptr %9, align 8, !tbaa !42
  %41 = getelementptr inbounds nuw %struct.MOVAtom, ptr %6, i32 0, i32 1
  %42 = load i64, ptr %41, align 8, !tbaa !58
  %43 = icmp slt i64 %42, 10
  br i1 %43, label %44, label %45

44:                                               ; preds = %26
  store i32 -1094995529, ptr %5, align 4
  store i32 1, ptr %16, align 4
  br label %88

45:                                               ; preds = %26
  %46 = load ptr, ptr %8, align 8, !tbaa !9
  %47 = call i32 @avio_rb32(ptr noundef %46)
  store i32 %47, ptr %10, align 4, !tbaa !11
  %48 = load i32, ptr %10, align 4, !tbaa !11
  %49 = lshr i32 %48, 28
  %50 = and i32 %49, 15
  store i32 %50, ptr %14, align 4, !tbaa !11
  %51 = load i32, ptr %10, align 4, !tbaa !11
  %52 = lshr i32 %51, 15
  %53 = and i32 %52, 31
  store i32 %53, ptr %12, align 4, !tbaa !11
  %54 = load i32, ptr %10, align 4, !tbaa !11
  %55 = and i32 %54, 8191
  store i32 %55, ptr %13, align 4, !tbaa !11
  %56 = load i32, ptr %13, align 4, !tbaa !11
  %57 = icmp ne i32 %56, 0
  br i1 %57, label %58, label %60

58:                                               ; preds = %45
  %59 = load i32, ptr %13, align 4, !tbaa !11
  store i32 %59, ptr %11, align 4, !tbaa !11
  br label %62

60:                                               ; preds = %45
  %61 = load i32, ptr %12, align 4, !tbaa !11
  store i32 %61, ptr %11, align 4, !tbaa !11
  br label %62

62:                                               ; preds = %60, %58
  %63 = load i32, ptr %14, align 4, !tbaa !11
  %64 = and i32 %63, 7
  %65 = shl i32 40, %64
  %66 = load ptr, ptr %9, align 8, !tbaa !42
  %67 = getelementptr inbounds nuw %struct.AVStream, ptr %66, i32 0, i32 3
  %68 = load ptr, ptr %67, align 8, !tbaa !60
  %69 = getelementptr inbounds nuw %struct.AVCodecParameters, ptr %68, i32 0, i32 27
  store i32 %65, ptr %69, align 8, !tbaa !468
  %70 = load i32, ptr %14, align 4, !tbaa !11
  %71 = call i32 @mlp_samplerate(i32 noundef %70)
  %72 = load ptr, ptr %9, align 8, !tbaa !42
  %73 = getelementptr inbounds nuw %struct.AVStream, ptr %72, i32 0, i32 3
  %74 = load ptr, ptr %73, align 8, !tbaa !60
  %75 = getelementptr inbounds nuw %struct.AVCodecParameters, ptr %74, i32 0, i32 25
  store i32 %71, ptr %75, align 8, !tbaa !91
  %76 = load ptr, ptr %9, align 8, !tbaa !42
  %77 = getelementptr inbounds nuw %struct.AVStream, ptr %76, i32 0, i32 3
  %78 = load ptr, ptr %77, align 8, !tbaa !60
  %79 = getelementptr inbounds nuw %struct.AVCodecParameters, ptr %78, i32 0, i32 24
  call void @av_channel_layout_uninit(ptr noundef %79)
  %80 = load i32, ptr %11, align 4, !tbaa !11
  %81 = call i64 @truehd_layout(i32 noundef %80)
  store i64 %81, ptr %15, align 8, !tbaa !59
  %82 = load ptr, ptr %9, align 8, !tbaa !42
  %83 = getelementptr inbounds nuw %struct.AVStream, ptr %82, i32 0, i32 3
  %84 = load ptr, ptr %83, align 8, !tbaa !60
  %85 = getelementptr inbounds nuw %struct.AVCodecParameters, ptr %84, i32 0, i32 24
  %86 = load i64, ptr %15, align 8, !tbaa !59
  %87 = call i32 @av_channel_layout_from_mask(ptr noundef %85, i64 noundef %86)
  store i32 0, ptr %5, align 4
  store i32 1, ptr %16, align 4
  br label %88

88:                                               ; preds = %62, %44, %25
  call void @llvm.lifetime.end.p0(i64 8, ptr %15) #14
  call void @llvm.lifetime.end.p0(i64 4, ptr %14) #14
  call void @llvm.lifetime.end.p0(i64 4, ptr %13) #14
  call void @llvm.lifetime.end.p0(i64 4, ptr %12) #14
  call void @llvm.lifetime.end.p0(i64 4, ptr %11) #14
  call void @llvm.lifetime.end.p0(i64 4, ptr %10) #14
  call void @llvm.lifetime.end.p0(i64 8, ptr %9) #14
  %89 = load i32, ptr %5, align 4
  ret i32 %89
}