; Function Attrs: nounwind uwtable
define internal range(i32 -1094995529, 1) i32 @mov_read_dmlp(ptr noundef readonly captures(none) %0, ptr noundef %1, i32 %2, i64 %3) #0 {
  %5 = getelementptr inbounds nuw i8, ptr %0, i64 8
  %6 = load ptr, ptr %5, align 8, !tbaa !4
  %7 = getelementptr inbounds nuw i8, ptr %6, i64 44
  %8 = load i32, ptr %7, align 4, !tbaa !25
  %9 = icmp eq i32 %8, 0
  br i1 %9, label %46, label %10

10:                                               ; preds = %4
  %11 = icmp slt i64 %3, 10
  br i1 %11, label %46, label %12

12:                                               ; preds = %10
  %13 = getelementptr inbounds nuw i8, ptr %6, i64 48
  %14 = load ptr, ptr %13, align 8, !tbaa !37
  %15 = add i32 %8, -1
  %16 = zext i32 %15 to i64
  %17 = getelementptr inbounds nuw ptr, ptr %14, i64 %16
  %18 = load ptr, ptr %17, align 8, !tbaa !38
  %19 = tail call i32 @avio_rb32(ptr noundef %1) #16
  %20 = lshr i32 %19, 28
  %21 = and i32 %19, 8191
  %.not = icmp eq i32 %21, 0
  %22 = lshr i32 %19, 15
  %23 = and i32 %22, 31
  %.018 = select i1 %.not, i32 %23, i32 %21
  %24 = and i32 %20, 7
  %25 = shl nuw nsw i32 40, %24
  %26 = getelementptr inbounds nuw i8, ptr %18, i64 16
  %27 = load ptr, ptr %26, align 8, !tbaa !49
  %28 = getelementptr inbounds nuw i8, ptr %27, i64 160
  store i32 %25, ptr %28, align 8, !tbaa !556
  %29 = icmp eq i32 %20, 15
  %.not.i = icmp sgt i32 %19, -1
  %30 = select i1 %.not.i, i32 48000, i32 44100
  %31 = shl nuw nsw i32 %30, %24
  %.0.i = select i1 %29, i32 0, i32 %31
  %32 = getelementptr inbounds nuw i8, ptr %27, i64 152
  store i32 %.0.i, ptr %32, align 8, !tbaa !93
  %33 = getelementptr inbounds nuw i8, ptr %27, i64 128
  tail call void @av_channel_layout_uninit(ptr noundef nonnull %33) #16
  br label %34

34:                                               ; preds = %34, %12
  %indvars.iv.i = phi i64 [ 0, %12 ], [ %indvars.iv.next.i, %34 ]
  %.09.i = phi i64 [ 0, %12 ], [ %42, %34 ]
  %35 = getelementptr inbounds nuw [13 x i64], ptr @thd_layout, i64 0, i64 %indvars.iv.i
  %36 = load i64, ptr %35, align 8, !tbaa !176
  %37 = trunc nuw nsw i64 %indvars.iv.i to i32
  %38 = lshr i32 %.018, %37
  %39 = and i32 %38, 1
  %40 = zext nneg i32 %39 to i64
  %41 = mul nuw nsw i64 %36, %40
  %42 = or i64 %41, %.09.i
  %indvars.iv.next.i = add nuw nsw i64 %indvars.iv.i, 1
  %exitcond.not.i = icmp eq i64 %indvars.iv.next.i, 13
  br i1 %exitcond.not.i, label %truehd_layout.exit, label %34, !llvm.loop !614

truehd_layout.exit:                               ; preds = %34
  %43 = load ptr, ptr %26, align 8, !tbaa !49
  %44 = getelementptr inbounds nuw i8, ptr %43, i64 128
  %45 = tail call i32 @av_channel_layout_from_mask(ptr noundef nonnull %44, i64 noundef %42) #16
  br label %46

46:                                               ; preds = %10, %4, %truehd_layout.exit
  %.0 = phi i32 [ 0, %truehd_layout.exit ], [ 0, %4 ], [ -1094995529, %10 ]
  ret i32 %.0
}